target datalayout = "e-m:e-p270:32:32-p271:32:32-p272:64:64-i64:64-i128:128-f80:128-n8:16:32:64-S128"
target triple = "x86_64-pc-linux-gnu"

%struct.ObjectAddress = type { i32, i32, i32 }
%struct.RelationData = type { %struct.RelFileLocator, ptr, i32, i32, i8, i8, i8, i8, i8, i32, i32, i32, i32, ptr, ptr, i32, %struct.LockInfoData, ptr, ptr, ptr, ptr, ptr, i8, ptr, ptr, ptr, ptr, ptr, ptr, i32, ptr, i8, ptr, ptr, i32, i8, i32, ptr, i8, ptr, ptr, ptr, ptr, ptr, ptr, ptr, i32, ptr, ptr, ptr, ptr, ptr, ptr, ptr, ptr, ptr, ptr, ptr, ptr, ptr, ptr, ptr, ptr, ptr, ptr, ptr, i32, i8, ptr }
%struct.RelFileLocator = type { i32, i32, i32 }
%struct.LockInfoData = type { %struct.LockRelId }
%struct.LockRelId = type { i32, i32 }
%struct.CreateFdwStmt = type { i32, ptr, ptr, ptr }

@.str.1 = private unnamed_addr constant [14 x i8] c"foreigncmds.c\00", align 1
@.str.8 = private unnamed_addr constant [54 x i8] c"permission denied to create foreign-data wrapper \22%s\22\00", align 1
@.str.9 = private unnamed_addr constant [52 x i8] c"Must be superuser to create a foreign-data wrapper.\00", align 1
@__func__.CreateForeignDataWrapper = private unnamed_addr constant [25 x i8] c"CreateForeignDataWrapper\00", align 1
@.str.10 = private unnamed_addr constant [41 x i8] c"foreign-data wrapper \22%s\22 already exists\00", align 1
@object_access_hook = external global ptr, align 8

; Function Attrs: inlinehint nounwind uwtable
define internal ptr @DatumGetPointer(i64 noundef %0) #6 {
  %2 = alloca i64, align 8
  store i64 %0, ptr %2, align 8
  %3 = load i64, ptr %2, align 8
  %4 = inttoptr i64 %3 to ptr
  ret ptr %4
}

; Function Attrs: inlinehint nounwind uwtable
define internal i64 @PointerGetDatum(ptr noundef %0) #6 {
  %2 = alloca ptr, align 8
  store ptr %0, ptr %2, align 8
  %3 = load ptr, ptr %2, align 8
  %4 = ptrtoint ptr %3 to i64
  ret i64 %4
}

; Function Attrs: inlinehint nounwind uwtable
define internal i64 @CStringGetDatum(ptr noundef %0) #6 {
  %2 = alloca ptr, align 8
  store ptr %0, ptr %2, align 8
  %3 = load ptr, ptr %2, align 8
  %4 = call i64 @PointerGetDatum(ptr noundef %3)
  ret i64 %4
}

; Function Attrs: inlinehint nounwind uwtable
define internal i64 @ObjectIdGetDatum(i32 noundef %0) #6 {
  %2 = alloca i32, align 4
  store i32 %0, ptr %2, align 4
  %3 = load i32, ptr %2, align 4
  %4 = zext i32 %3 to i64
  ret i64 %4
}

; Function Attrs: nounwind uwtable
define dso_local { i64, i32 } @CreateForeignDataWrapper(ptr noundef %0, ptr noundef %1) #0 {
  %3 = alloca %struct.ObjectAddress, align 4
  %4 = alloca ptr, align 8
  %5 = alloca ptr, align 8
  %6 = alloca ptr, align 8
  %7 = alloca [7 x i64], align 16
  %8 = alloca [7 x i8], align 1
  %9 = alloca ptr, align 8
  %10 = alloca i32, align 4
  %11 = alloca i8, align 1
  %12 = alloca i8, align 1
  %13 = alloca i32, align 4
  %14 = alloca i32, align 4
  %15 = alloca i64, align 8
  %16 = alloca i32, align 4
  %17 = alloca %struct.ObjectAddress, align 4
  %18 = alloca { i64, i32 }, align 8
  store ptr %0, ptr %4, align 8
  store ptr %1, ptr %5, align 8
  call void @llvm.lifetime.start.p0(i64 8, ptr %6) #9
  call void @llvm.lifetime.start.p0(i64 56, ptr %7) #9
  call void @llvm.lifetime.start.p0(i64 7, ptr %8) #9
  call void @llvm.lifetime.start.p0(i64 8, ptr %9) #9
  call void @llvm.lifetime.start.p0(i64 4, ptr %10) #9
  call void @llvm.lifetime.start.p0(i64 1, ptr %11) #9
  call void @llvm.lifetime.start.p0(i64 1, ptr %12) #9
  call void @llvm.lifetime.start.p0(i64 4, ptr %13) #9
  call void @llvm.lifetime.start.p0(i64 4, ptr %14) #9
  call void @llvm.lifetime.start.p0(i64 8, ptr %15) #9
  call void @llvm.lifetime.start.p0(i64 4, ptr %16) #9
  call void @llvm.lifetime.start.p0(i64 12, ptr %17) #9
  %19 = call ptr @table_open(i32 noundef 2328, i32 noundef 3)
  store ptr %19, ptr %6, align 8
  %20 = call zeroext i1 @superuser()
  br i1 %20, label %37, label %21

21:                                               ; preds = %2
  br label %22

22:                                               ; preds = %21
  br i1 true, label %23, label %25

23:                                               ; preds = %22
  %24 = call zeroext i1 @errstart_cold(i32 noundef 21, ptr noundef null) #11
  br i1 %24, label %27, label %34

25:                                               ; preds = %22
  %26 = call zeroext i1 @errstart(i32 noundef 21, ptr noundef null)
  br i1 %26, label %27, label %34

27:                                               ; preds = %25, %23
  %28 = call i32 @errcode(i32 noundef 16797828)
  %29 = load ptr, ptr %5, align 8
  %30 = getelementptr inbounds nuw %struct.CreateFdwStmt, ptr %29, i32 0, i32 1
  %31 = load ptr, ptr %30, align 8
  %32 = call i32 (ptr, ...) @errmsg(ptr noundef @.str.8, ptr noundef %31)
  %33 = call i32 (ptr, ...) @errhint(ptr noundef @.str.9)
  call void @errfinish(ptr noundef @.str.1, i32 noundef 582, ptr noundef @__func__.CreateForeignDataWrapper)
  br label %34

34:                                               ; preds = %27, %25, %23
  unreachable

35:                                               ; No predecessors!
  br label %36

36:                                               ; preds = %35
  br label %37

37:                                               ; preds = %36, %2
  %38 = call i32 @GetUserId()
  store i32 %38, ptr %16, align 4
  %39 = load ptr, ptr %5, align 8
  %40 = getelementptr inbounds nuw %struct.CreateFdwStmt, ptr %39, i32 0, i32 1
  %41 = load ptr, ptr %40, align 8
  %42 = call ptr @GetForeignDataWrapperByName(ptr noundef %41, i1 noundef zeroext true)
  %43 = icmp ne ptr %42, null
  br i1 %43, label %44, label %59

44:                                               ; preds = %37
  br label %45

45:                                               ; preds = %44
  br i1 true, label %46, label %48

46:                                               ; preds = %45
  %47 = call zeroext i1 @errstart_cold(i32 noundef 21, ptr noundef null) #11
  br i1 %47, label %50, label %56

48:                                               ; preds = %45
  %49 = call zeroext i1 @errstart(i32 noundef 21, ptr noundef null)
  br i1 %49, label %50, label %56

50:                                               ; preds = %48, %46
  %51 = call i32 @errcode(i32 noundef 290948)
  %52 = load ptr, ptr %5, align 8
  %53 = getelementptr inbounds nuw %struct.CreateFdwStmt, ptr %52, i32 0, i32 1
  %54 = load ptr, ptr %53, align 8
  %55 = call i32 (ptr, ...) @errmsg(ptr noundef @.str.10, ptr noundef %54)
  call void @errfinish(ptr noundef @.str.1, i32 noundef 594, ptr noundef @__func__.CreateForeignDataWrapper)
  br label %56

56:                                               ; preds = %50, %48, %46
  unreachable

57:                                               ; No predecessors!
  br label %58

58:                                               ; preds = %57
  br label %59

59:                                               ; preds = %58, %37
  %60 = getelementptr inbounds [7 x i64], ptr %7, i64 0, i64 0
  call void @llvm.memset.p0.i64(ptr align 16 %60, i8 0, i64 56, i1 false)
  %61 = getelementptr inbounds [7 x i8], ptr %8, i64 0, i64 0
  call void @llvm.memset.p0.i64(ptr align 1 %61, i8 0, i64 7, i1 false)
  %62 = load ptr, ptr %6, align 8
  %63 = call i32 @GetNewOidWithIndex(ptr noundef %62, i32 noundef 112, i16 noundef signext 1)
  store i32 %63, ptr %10, align 4
  %64 = load i32, ptr %10, align 4
  %65 = call i64 @ObjectIdGetDatum(i32 noundef %64)
  %66 = getelementptr inbounds [7 x i64], ptr %7, i64 0, i64 0
  store i64 %65, ptr %66, align 16
  %67 = load ptr, ptr %5, align 8
  %68 = getelementptr inbounds nuw %struct.CreateFdwStmt, ptr %67, i32 0, i32 1
  %69 = load ptr, ptr %68, align 8
  %70 = call i64 @CStringGetDatum(ptr noundef %69)
  %71 = call i64 @DirectFunctionCall1Coll(ptr noundef @namein, i32 noundef 0, i64 noundef %70)
  %72 = getelementptr inbounds [7 x i64], ptr %7, i64 0, i64 1
  store i64 %71, ptr %72, align 8
  %73 = load i32, ptr %16, align 4
  %74 = call i64 @ObjectIdGetDatum(i32 noundef %73)
  %75 = getelementptr inbounds [7 x i64], ptr %7, i64 0, i64 2
  store i64 %74, ptr %75, align 16
  %76 = load ptr, ptr %4, align 8
  %77 = load ptr, ptr %5, align 8
  %78 = getelementptr inbounds nuw %struct.CreateFdwStmt, ptr %77, i32 0, i32 2
  %79 = load ptr, ptr %78, align 8
  call void @parse_func_options(ptr noundef %76, ptr noundef %79, ptr noundef %11, ptr noundef %13, ptr noundef %12, ptr noundef %14)
  %80 = load i32, ptr %13, align 4
  %81 = call i64 @ObjectIdGetDatum(i32 noundef %80)
  %82 = getelementptr inbounds [7 x i64], ptr %7, i64 0, i64 3
  store i64 %81, ptr %82, align 8
  %83 = load i32, ptr %14, align 4
  %84 = call i64 @ObjectIdGetDatum(i32 noundef %83)
  %85 = getelementptr inbounds [7 x i64], ptr %7, i64 0, i64 4
  store i64 %84, ptr %85, align 16
  %86 = getelementptr inbounds [7 x i8], ptr %8, i64 0, i64 5
  store i8 1, ptr %86, align 1
  %87 = call i64 @PointerGetDatum(ptr noundef null)
  %88 = load ptr, ptr %5, align 8
  %89 = getelementptr inbounds nuw %struct.CreateFdwStmt, ptr %88, i32 0, i32 3
  %90 = load ptr, ptr %89, align 8
  %91 = load i32, ptr %14, align 4
  %92 = call i64 @transformGenericOptions(i32 noundef 2328, i64 noundef %87, ptr noundef %90, i32 noundef %91)
  store i64 %92, ptr %15, align 8
  %93 = load i64, ptr %15, align 8
  %94 = call ptr @DatumGetPointer(i64 noundef %93)
  %95 = icmp ne ptr %94, null
  br i1 %95, label %96, label %99

96:                                               ; preds = %59
  %97 = load i64, ptr %15, align 8
  %98 = getelementptr inbounds [7 x i64], ptr %7, i64 0, i64 6
  store i64 %97, ptr %98, align 16
  br label %101

99:                                               ; preds = %59
  %100 = getelementptr inbounds [7 x i8], ptr %8, i64 0, i64 6
  store i8 1, ptr %100, align 1
  br label %101

101:                                              ; preds = %99, %96
  %102 = load ptr, ptr %6, align 8
  %103 = getelementptr inbounds nuw %struct.RelationData, ptr %102, i32 0, i32 14
  %104 = load ptr, ptr %103, align 8
  %105 = getelementptr inbounds [7 x i64], ptr %7, i64 0, i64 0
  %106 = getelementptr inbounds [7 x i8], ptr %8, i64 0, i64 0
  %107 = call ptr @heap_form_tuple(ptr noundef %104, ptr noundef %105, ptr noundef %106)
  store ptr %107, ptr %9, align 8
  %108 = load ptr, ptr %6, align 8
  %109 = load ptr, ptr %9, align 8
  call void @CatalogTupleInsert(ptr noundef %108, ptr noundef %109)
  %110 = load ptr, ptr %9, align 8
  call void @heap_freetuple(ptr noundef %110)
  %111 = getelementptr inbounds nuw %struct.ObjectAddress, ptr %3, i32 0, i32 0
  store i32 2328, ptr %111, align 4
  %112 = load i32, ptr %10, align 4
  %113 = getelementptr inbounds nuw %struct.ObjectAddress, ptr %3, i32 0, i32 1
  store i32 %112, ptr %113, align 4
  %114 = getelementptr inbounds nuw %struct.ObjectAddress, ptr %3, i32 0, i32 2
  store i32 0, ptr %114, align 4
  %115 = load i32, ptr %13, align 4
  %116 = icmp ne i32 %115, 0
  br i1 %116, label %117, label %122

117:                                              ; preds = %101
  %118 = getelementptr inbounds nuw %struct.ObjectAddress, ptr %17, i32 0, i32 0
  store i32 1255, ptr %118, align 4
  %119 = load i32, ptr %13, align 4
  %120 = getelementptr inbounds nuw %struct.ObjectAddress, ptr %17, i32 0, i32 1
  store i32 %119, ptr %120, align 4
  %121 = getelementptr inbounds nuw %struct.ObjectAddress, ptr %17, i32 0, i32 2
  store i32 0, ptr %121, align 4
  call void @recordDependencyOn(ptr noundef %3, ptr noundef %17, i32 noundef 110)
  br label %122

122:                                              ; preds = %117, %101
  %123 = load i32, ptr %14, align 4
  %124 = icmp ne i32 %123, 0
  br i1 %124, label %125, label %130

125:                                              ; preds = %122
  %126 = getelementptr inbounds nuw %struct.ObjectAddress, ptr %17, i32 0, i32 0
  store i32 1255, ptr %126, align 4
  %127 = load i32, ptr %14, align 4
  %128 = getelementptr inbounds nuw %struct.ObjectAddress, ptr %17, i32 0, i32 1
  store i32 %127, ptr %128, align 4
  %129 = getelementptr inbounds nuw %struct.ObjectAddress, ptr %17, i32 0, i32 2
  store i32 0, ptr %129, align 4
  call void @recordDependencyOn(ptr noundef %3, ptr noundef %17, i32 noundef 110)
  br label %130

130:                                              ; preds = %125, %122
  %131 = load i32, ptr %10, align 4
  %132 = load i32, ptr %16, align 4
  call void @recordDependencyOnOwner(i32 noundef 2328, i32 noundef %131, i32 noundef %132)
  call void @recordDependencyOnCurrentExtension(ptr noundef %3, i1 noundef zeroext false)
  br label %133

133:                                              ; preds = %130
  %134 = load ptr, ptr @object_access_hook, align 8
  %135 = icmp ne ptr %134, null
  br i1 %135, label %136, label %138

136:                                              ; preds = %133
  %137 = load i32, ptr %10, align 4
  call void @RunObjectPostCreateHook(i32 noundef 2328, i32 noundef %137, i32 noundef 0, i1 noundef zeroext false)
  br label %138

138:                                              ; preds = %136, %133
  br label %139

139:                                              ; preds = %138
  br label %140

140:                                              ; preds = %139
  %141 = load ptr, ptr %6, align 8
  call void @table_close(ptr noundef %141, i32 noundef 3)
  call void @llvm.lifetime.end.p0(i64 12, ptr %17) #9
  call void @llvm.lifetime.end.p0(i64 4, ptr %16) #9
  call void @llvm.lifetime.end.p0(i64 8, ptr %15) #9
  call void @llvm.lifetime.end.p0(i64 4, ptr %14) #9
  call void @llvm.lifetime.end.p0(i64 4, ptr %13) #9
  call void @llvm.lifetime.end.p0(i64 1, ptr %12) #9
  call void @llvm.lifetime.end.p0(i64 1, ptr %11) #9
  call void @llvm.lifetime.end.p0(i64 4, ptr %10) #9
  call void @llvm.lifetime.end.p0(i64 8, ptr %9) #9
  call void @llvm.lifetime.end.p0(i64 7, ptr %8) #9
  call void @llvm.lifetime.end.p0(i64 56, ptr %7) #9
  call void @llvm.lifetime.end.p0(i64 8, ptr %6) #9
  call void @llvm.memcpy.p0.p0.i64(ptr align 8 %18, ptr align 4 %3, i64 12, i1 false)
  %142 = load { i64, i32 }, ptr %18, align 8
  ret { i64, i32 } %142
}