; Function Attrs: nounwind uwtable
define dso_local { i64, i32 } @CreateForeignDataWrapper(ptr noundef %0, ptr noundef readonly captures(none) %1) local_unnamed_addr #0 {
  %3 = alloca %struct.ObjectAddress, align 8
  %4 = alloca [7 x i64], align 16
  %5 = alloca [7 x i8], align 1
  %6 = alloca i8, align 1
  %7 = alloca i8, align 1
  %8 = alloca i32, align 4
  %9 = alloca i32, align 4
  %10 = alloca %struct.ObjectAddress, align 4
  call void @llvm.lifetime.start.p0(i64 56, ptr nonnull %4) #9
  call void @llvm.lifetime.start.p0(i64 7, ptr nonnull %5) #9
  call void @llvm.lifetime.start.p0(i64 1, ptr nonnull %6) #9
  call void @llvm.lifetime.start.p0(i64 1, ptr nonnull %7) #9
  call void @llvm.lifetime.start.p0(i64 4, ptr nonnull %8) #9
  call void @llvm.lifetime.start.p0(i64 4, ptr nonnull %9) #9
  call void @llvm.lifetime.start.p0(i64 12, ptr nonnull %10) #9
  %11 = tail call ptr @table_open(i32 noundef 2328, i32 noundef 3) #9
  %12 = tail call zeroext i1 @superuser() #9
  br i1 %12, label %20, label %13

13:                                               ; preds = %2
  %14 = tail call zeroext i1 @errstart_cold(i32 noundef 21, ptr noundef null) #11
  tail call void @llvm.assume(i1 %14)
  %15 = tail call i32 @errcode(i32 noundef 16797828) #9
  %16 = getelementptr inbounds nuw i8, ptr %1, i64 8
  %17 = load ptr, ptr %16, align 8
  %18 = tail call i32 (ptr, ...) @errmsg(ptr noundef nonnull @.str.8, ptr noundef %17) #9
  %19 = tail call i32 (ptr, ...) @errhint(ptr noundef nonnull @.str.9) #9
  tail call void @errfinish(ptr noundef nonnull @.str.1, i32 noundef 582, ptr noundef nonnull @__func__.CreateForeignDataWrapper) #9
  unreachable

20:                                               ; preds = %2
  %21 = tail call i32 @GetUserId() #9
  %22 = getelementptr inbounds nuw i8, ptr %1, i64 8
  %23 = load ptr, ptr %22, align 8
  %24 = tail call ptr @GetForeignDataWrapperByName(ptr noundef %23, i1 noundef zeroext true) #9
  %.not = icmp eq ptr %24, null
  br i1 %.not, label %30, label %25

25:                                               ; preds = %20
  %26 = tail call zeroext i1 @errstart_cold(i32 noundef 21, ptr noundef null) #11
  tail call void @llvm.assume(i1 %26)
  %27 = tail call i32 @errcode(i32 noundef 290948) #9
  %28 = load ptr, ptr %22, align 8
  %29 = tail call i32 (ptr, ...) @errmsg(ptr noundef nonnull @.str.10, ptr noundef %28) #9
  tail call void @errfinish(ptr noundef nonnull @.str.1, i32 noundef 594, ptr noundef nonnull @__func__.CreateForeignDataWrapper) #9
  unreachable

30:                                               ; preds = %20
  %31 = getelementptr inbounds nuw i8, ptr %4, i64 32
  call void @llvm.memset.p0.i64(ptr noundef nonnull align 16 dereferenceable(56) %31, i8 0, i64 24, i1 false)
  call void @llvm.memset.p0.i64(ptr noundef nonnull align 1 dereferenceable(7) %5, i8 0, i64 7, i1 false)
  %32 = tail call i32 @GetNewOidWithIndex(ptr noundef %11, i32 noundef 112, i16 noundef signext 1) #9
  %33 = zext i32 %32 to i64
  store i64 %33, ptr %4, align 16
  %34 = load ptr, ptr %22, align 8
  %35 = ptrtoint ptr %34 to i64
  %36 = tail call i64 @DirectFunctionCall1Coll(ptr noundef nonnull @namein, i32 noundef 0, i64 noundef %35) #9
  %37 = getelementptr inbounds nuw i8, ptr %4, i64 8
  store i64 %36, ptr %37, align 8
  %38 = zext i32 %21 to i64
  %39 = getelementptr inbounds nuw i8, ptr %4, i64 16
  store i64 %38, ptr %39, align 16
  %40 = getelementptr inbounds nuw i8, ptr %1, i64 16
  %41 = load ptr, ptr %40, align 8
  call fastcc void @parse_func_options(ptr noundef %0, ptr noundef %41, ptr noundef %6, ptr noundef %8, ptr noundef %7, ptr noundef %9)
  %42 = load i32, ptr %8, align 4
  %43 = zext i32 %42 to i64
  %44 = getelementptr inbounds nuw i8, ptr %4, i64 24
  store i64 %43, ptr %44, align 8
  %45 = load i32, ptr %9, align 4
  %46 = zext i32 %45 to i64
  %47 = getelementptr inbounds nuw i8, ptr %4, i64 32
  store i64 %46, ptr %47, align 16
  %48 = getelementptr inbounds nuw i8, ptr %5, i64 5
  store i8 1, ptr %48, align 1
  %49 = getelementptr inbounds nuw i8, ptr %1, i64 24
  %50 = load ptr, ptr %49, align 8
  %51 = tail call i64 @transformGenericOptions(i32 noundef 2328, i64 noundef 0, ptr noundef %50, i32 noundef %45)
  %.not20 = icmp eq i64 %51, 0
  br i1 %.not20, label %54, label %52

52:                                               ; preds = %30
  %53 = getelementptr inbounds nuw i8, ptr %4, i64 48
  store i64 %51, ptr %53, align 16
  br label %56

54:                                               ; preds = %30
  %55 = getelementptr inbounds nuw i8, ptr %5, i64 6
  store i8 1, ptr %55, align 1
  br label %56

56:                                               ; preds = %54, %52
  %57 = getelementptr inbounds nuw i8, ptr %11, i64 64
  %58 = load ptr, ptr %57, align 8
  %59 = call ptr @heap_form_tuple(ptr noundef %58, ptr noundef nonnull %4, ptr noundef nonnull %5) #9
  call void @CatalogTupleInsert(ptr noundef %11, ptr noundef %59) #9
  call void @heap_freetuple(ptr noundef %59) #9
  store i32 2328, ptr %3, align 8
  %60 = getelementptr inbounds nuw i8, ptr %3, i64 4
  store i32 %32, ptr %60, align 4
  %61 = getelementptr inbounds nuw i8, ptr %3, i64 8
  store i32 0, ptr %61, align 8
  %.not21 = icmp eq i32 %42, 0
  br i1 %.not21, label %65, label %62

62:                                               ; preds = %56
  store i32 1255, ptr %10, align 4
  %63 = getelementptr inbounds nuw i8, ptr %10, i64 4
  store i32 %42, ptr %63, align 4
  %64 = getelementptr inbounds nuw i8, ptr %10, i64 8
  store i32 0, ptr %64, align 4
  call void @recordDependencyOn(ptr noundef nonnull %3, ptr noundef nonnull %10, i32 noundef 110) #9
  br label %65

65:                                               ; preds = %62, %56
  %.not22 = icmp eq i32 %45, 0
  br i1 %.not22, label %69, label %66

66:                                               ; preds = %65
  store i32 1255, ptr %10, align 4
  %67 = getelementptr inbounds nuw i8, ptr %10, i64 4
  store i32 %45, ptr %67, align 4
  %68 = getelementptr inbounds nuw i8, ptr %10, i64 8
  store i32 0, ptr %68, align 4
  call void @recordDependencyOn(ptr noundef nonnull %3, ptr noundef nonnull %10, i32 noundef 110) #9
  br label %69

69:                                               ; preds = %66, %65
  call void @recordDependencyOnOwner(i32 noundef 2328, i32 noundef %32, i32 noundef %21) #9
  call void @recordDependencyOnCurrentExtension(ptr noundef nonnull %3, i1 noundef zeroext false) #9
  %70 = load ptr, ptr @object_access_hook, align 8
  %.not23 = icmp eq ptr %70, null
  br i1 %.not23, label %72, label %71

71:                                               ; preds = %69
  call void @RunObjectPostCreateHook(i32 noundef 2328, i32 noundef %32, i32 noundef 0, i1 noundef zeroext false) #9
  br label %72

72:                                               ; preds = %71, %69
  call void @table_close(ptr noundef nonnull %11, i32 noundef 3) #9
  call void @llvm.lifetime.end.p0(i64 12, ptr nonnull %10) #9
  call void @llvm.lifetime.end.p0(i64 4, ptr nonnull %9) #9
  call void @llvm.lifetime.end.p0(i64 4, ptr nonnull %8) #9
  call void @llvm.lifetime.end.p0(i64 1, ptr nonnull %7) #9
  call void @llvm.lifetime.end.p0(i64 1, ptr nonnull %6) #9
  call void @llvm.lifetime.end.p0(i64 7, ptr nonnull %5) #9
  call void @llvm.lifetime.end.p0(i64 56, ptr nonnull %4) #9
  %.sroa.0.0.copyload = load i64, ptr %3, align 8
  %.sroa.2.0.copyload = load i32, ptr %61, align 8
  %.fca.0.insert = insertvalue { i64, i32 } poison, i64 %.sroa.0.0.copyload, 0
  %.fca.1.insert = insertvalue { i64, i32 } %.fca.0.insert, i32 %.sroa.2.0.copyload, 1
  ret { i64, i32 } %.fca.1.insert
}